target datalayout = "e-m:e-p270:32:32-p271:32:32-p272:64:64-i64:64-i128:128-f80:128-n8:16:32:64-S128"
target triple = "x86_64-unknown-linux-gnu"

%struct.VirtIOGPUBase = type { %struct.VirtIODevice, ptr, %struct.virtio_gpu_base_conf, %struct.virtio_gpu_config, ptr, i32, i32, %struct.MemoryRegion, [16 x %struct.virtio_gpu_scanout], i32, [16 x %struct.virtio_gpu_requested_state] }
%struct.VirtIODevice = type { %struct.DeviceState, ptr, i8, i8, i16, i64, i64, i64, i64, ptr, i16, i32, i32, ptr, %struct.MemoryListener, i16, i8, i8, i8, i8, i8, i8, i8, i8, i8, ptr, ptr, i8, i8, ptr, ptr, %union.anon.1, %struct.EventNotifier, i8 }
%struct.DeviceState = type { %struct.Object, ptr, ptr, i8, i8, i64, ptr, i32, i8, ptr, %struct.NamedGPIOListHead, %struct.NamedClockListHead, %struct.BusStateHead, i32, i32, i32, %struct.ResettableState, ptr, %struct.MemReentrancyGuard }
%struct.Object = type { ptr, ptr, ptr, i32, ptr }
%struct.NamedGPIOListHead = type { ptr }
%struct.NamedClockListHead = type { ptr }
%struct.BusStateHead = type { ptr }
%struct.ResettableState = type { i32, i8, i8 }
%struct.MemReentrancyGuard = type { i8 }
%struct.MemoryListener = type { ptr, ptr, ptr, ptr, ptr, ptr, ptr, ptr, ptr, ptr, ptr, ptr, ptr, ptr, ptr, ptr, ptr, i32, ptr, ptr, %union.anon, %union.anon.0 }
%union.anon = type { %struct.QTailQLink }
%struct.QTailQLink = type { ptr, ptr }
%union.anon.0 = type { %struct.QTailQLink }
%union.anon.1 = type { %struct.QTailQLink }
%struct.EventNotifier = type { i32, i32, i8 }
%struct.virtio_gpu_base_conf = type { i32, i32, i32, i32, i64 }
%struct.virtio_gpu_config = type { i32, i32, i32, i32 }
%struct.MemoryRegion = type { %struct.Object, i8, i8, i8, i8, i8, i8, i8, i8, i8, i8, ptr, ptr, ptr, ptr, ptr, ptr, i32, i128, i64, ptr, i64, i8, i8, i8, i8, i8, ptr, i64, i32, %union.anon.2, %union.anon.3, %union.anon.4, ptr, i32, ptr, ptr, i8 }
%union.anon.2 = type { %struct.QTailQLink }
%union.anon.3 = type { %struct.QTailQLink }
%union.anon.4 = type { %struct.QTailQLink }
%struct.virtio_gpu_scanout = type { ptr, ptr, i32, i32, i32, i32, i32, i32, %struct.virtio_gpu_update_cursor, ptr }
%struct.virtio_gpu_update_cursor = type { %struct.virtio_gpu_ctrl_hdr, %struct.virtio_gpu_cursor_pos, i32, i32, i32, i32 }
%struct.virtio_gpu_ctrl_hdr = type { i32, i32, i64, i32, i8, [3 x i8] }
%struct.virtio_gpu_cursor_pos = type { i32, i32, i32, i32 }
%struct.virtio_gpu_requested_state = type { i16, i16, i32, i32, i32, i32, i32 }
%struct.qemu_edid_info = type { ptr, ptr, ptr, i16, i16, i32, i32, i32, i32, i32 }
%struct.virtio_gpu_resp_edid = type { %struct.virtio_gpu_ctrl_hdr, i32, i32, [1024 x i8] }

; Function Attrs: nounwind sspstrong uwtable
define internal i32 @cpu_to_le32(i32 noundef %v) #0 {
entry:
  %v.addr = alloca i32, align 4
  store i32 %v, ptr %v.addr, align 4
  %0 = load i32, ptr %v.addr, align 4
  ret i32 %0
}

; Function Attrs: nounwind sspstrong uwtable
define dso_local void @virtio_gpu_base_generate_edid(ptr noundef %g, i32 noundef %scanout, ptr noundef %edid) #0 {
entry:
  %g.addr = alloca ptr, align 8
  %scanout.addr = alloca i32, align 4
  %edid.addr = alloca ptr, align 8
  %info = alloca %struct.qemu_edid_info, align 8
  store ptr %g, ptr %g.addr, align 8
  store i32 %scanout, ptr %scanout.addr, align 4
  store ptr %edid, ptr %edid.addr, align 8
  %vendor = getelementptr inbounds %struct.qemu_edid_info, ptr %info, i32 0, i32 0
  store ptr null, ptr %vendor, align 8
  %name = getelementptr inbounds %struct.qemu_edid_info, ptr %info, i32 0, i32 1
  store ptr null, ptr %name, align 8
  %serial = getelementptr inbounds %struct.qemu_edid_info, ptr %info, i32 0, i32 2
  store ptr null, ptr %serial, align 8
  %width_mm = getelementptr inbounds %struct.qemu_edid_info, ptr %info, i32 0, i32 3
  %0 = load ptr, ptr %g.addr, align 8
  %req_state = getelementptr inbounds %struct.VirtIOGPUBase, ptr %0, i32 0, i32 10
  %1 = load i32, ptr %scanout.addr, align 4
  %idxprom = sext i32 %1 to i64
  %arrayidx = getelementptr [16 x %struct.virtio_gpu_requested_state], ptr %req_state, i64 0, i64 %idxprom
  %width_mm1 = getelementptr inbounds %struct.virtio_gpu_requested_state, ptr %arrayidx, i32 0, i32 0
  %2 = load i16, ptr %width_mm1, align 4
  store i16 %2, ptr %width_mm, align 8
  %height_mm = getelementptr inbounds %struct.qemu_edid_info, ptr %info, i32 0, i32 4
  %3 = load ptr, ptr %g.addr, align 8
  %req_state2 = getelementptr inbounds %struct.VirtIOGPUBase, ptr %3, i32 0, i32 10
  %4 = load i32, ptr %scanout.addr, align 4
  %idxprom3 = sext i32 %4 to i64
  %arrayidx4 = getelementptr [16 x %struct.virtio_gpu_requested_state], ptr %req_state2, i64 0, i64 %idxprom3
  %height_mm5 = getelementptr inbounds %struct.virtio_gpu_requested_state, ptr %arrayidx4, i32 0, i32 1
  %5 = load i16, ptr %height_mm5, align 2
  store i16 %5, ptr %height_mm, align 2
  %prefx = getelementptr inbounds %struct.qemu_edid_info, ptr %info, i32 0, i32 5
  %6 = load ptr, ptr %g.addr, align 8
  %req_state6 = getelementptr inbounds %struct.VirtIOGPUBase, ptr %6, i32 0, i32 10
  %7 = load i32, ptr %scanout.addr, align 4
  %idxprom7 = sext i32 %7 to i64
  %arrayidx8 = getelementptr [16 x %struct.virtio_gpu_requested_state], ptr %req_state6, i64 0, i64 %idxprom7
  %width = getelementptr inbounds %struct.virtio_gpu_requested_state, ptr %arrayidx8, i32 0, i32 2
  %8 = load i32, ptr %width, align 4
  store i32 %8, ptr %prefx, align 4
  %prefy = getelementptr inbounds %struct.qemu_edid_info, ptr %info, i32 0, i32 6
  %9 = load ptr, ptr %g.addr, align 8
  %req_state9 = getelementptr inbounds %struct.VirtIOGPUBase, ptr %9, i32 0, i32 10
  %10 = load i32, ptr %scanout.addr, align 4
  %idxprom10 = sext i32 %10 to i64
  %arrayidx11 = getelementptr [16 x %struct.virtio_gpu_requested_state], ptr %req_state9, i64 0, i64 %idxprom10
  %height = getelementptr inbounds %struct.virtio_gpu_requested_state, ptr %arrayidx11, i32 0, i32 3
  %11 = load i32, ptr %height, align 4
  store i32 %11, ptr %prefy, align 8
  %maxx = getelementptr inbounds %struct.qemu_edid_info, ptr %info, i32 0, i32 7
  store i32 0, ptr %maxx, align 4
  %maxy = getelementptr inbounds %struct.qemu_edid_info, ptr %info, i32 0, i32 8
  store i32 0, ptr %maxy, align 8
  %refresh_rate = getelementptr inbounds %struct.qemu_edid_info, ptr %info, i32 0, i32 9
  %12 = load ptr, ptr %g.addr, align 8
  %req_state12 = getelementptr inbounds %struct.VirtIOGPUBase, ptr %12, i32 0, i32 10
  %13 = load i32, ptr %scanout.addr, align 4
  %idxprom13 = sext i32 %13 to i64
  %arrayidx14 = getelementptr [16 x %struct.virtio_gpu_requested_state], ptr %req_state12, i64 0, i64 %idxprom13
  %refresh_rate15 = getelementptr inbounds %struct.virtio_gpu_requested_state, ptr %arrayidx14, i32 0, i32 4
  %14 = load i32, ptr %refresh_rate15, align 4
  store i32 %14, ptr %refresh_rate, align 4
  %call = call i32 @cpu_to_le32(i32 noundef 1024)
  %15 = load ptr, ptr %edid.addr, align 8
  %size = getelementptr inbounds %struct.virtio_gpu_resp_edid, ptr %15, i32 0, i32 1
  store i32 %call, ptr %size, align 8
  %16 = load ptr, ptr %edid.addr, align 8
  %edid16 = getelementptr inbounds %struct.virtio_gpu_resp_edid, ptr %16, i32 0, i32 3
  %arraydecay = getelementptr inbounds [1024 x i8], ptr %edid16, i64 0, i64 0
  call void @qemu_edid_generate(ptr noundef %arraydecay, i64 noundef 1024, ptr noundef %info)
  ret void
}