; Function Attrs: nounwind sspstrong uwtable
define dso_local void @virtio_gpu_base_generate_edid(ptr noundef readonly captures(none) %g, i32 noundef %scanout, ptr noundef initializes((24, 28)) %edid) local_unnamed_addr #1 {
entry:
  %info = alloca %struct.qemu_edid_info, align 8
  %width_mm = getelementptr inbounds nuw i8, ptr %info, i64 24
  %req_state = getelementptr inbounds nuw i8, ptr %g, i64 2532
  %idxprom = sext i32 %scanout to i64
  %arrayidx = getelementptr [16 x %struct.virtio_gpu_requested_state], ptr %req_state, i64 0, i64 %idxprom
  call void @llvm.memset.p0.i64(ptr noundef nonnull align 8 dereferenceable(24) %info, i8 0, i64 24, i1 false)
  %0 = load i16, ptr %arrayidx, align 4
  store i16 %0, ptr %width_mm, align 8
  %height_mm = getelementptr inbounds nuw i8, ptr %info, i64 26
  %height_mm5 = getelementptr inbounds nuw i8, ptr %arrayidx, i64 2
  %1 = load i16, ptr %height_mm5, align 2
  store i16 %1, ptr %height_mm, align 2
  %prefx = getelementptr inbounds nuw i8, ptr %info, i64 28
  %width = getelementptr inbounds nuw i8, ptr %arrayidx, i64 4
  %2 = load i32, ptr %width, align 4
  store i32 %2, ptr %prefx, align 4
  %prefy = getelementptr inbounds nuw i8, ptr %info, i64 32
  %height = getelementptr inbounds nuw i8, ptr %arrayidx, i64 8
  %3 = load i32, ptr %height, align 4
  store i32 %3, ptr %prefy, align 8
  %maxx = getelementptr inbounds nuw i8, ptr %info, i64 36
  store i32 0, ptr %maxx, align 4
  %maxy = getelementptr inbounds nuw i8, ptr %info, i64 40
  store i32 0, ptr %maxy, align 8
  %refresh_rate = getelementptr inbounds nuw i8, ptr %info, i64 44
  %refresh_rate15 = getelementptr inbounds nuw i8, ptr %arrayidx, i64 12
  %4 = load i32, ptr %refresh_rate15, align 4
  store i32 %4, ptr %refresh_rate, align 4
  %size = getelementptr inbounds nuw i8, ptr %edid, i64 24
  store i32 1024, ptr %size, align 8
  %edid16 = getelementptr inbounds nuw i8, ptr %edid, i64 32
  call void @qemu_edid_generate(ptr noundef nonnull %edid16, i64 noundef 1024, ptr noundef nonnull %info) #9
  ret void
}